; ModuleID = '10/1790.c'
source_filename = "10/1790.c"
target datalayout = "e-m:e-p270:32:32-p271:32:32-p272:64:64-i64:64-f80:128-n8:16:32:64-S128"
target triple = "x86_64-pc-linux-gnu"

@max = dso_local global [26 x i32] zeroinitializer, align 16
@a = dso_local global [26 x i32] zeroinitializer, align 16
@main.n = internal global i32 0, align 4
@main.i = internal global i32 0, align 4
@main.num = internal global i32 0, align 4
@.str = private unnamed_addr constant [3 x i8] c"%d\00", align 1

; Function Attrs: noinline nounwind uwtable
define dso_local void @attack(i32 %0) #0 {
  %2 = alloca i32, align 4
  %3 = alloca i32, align 4
  %4 = alloca i32, align 4
  %5 = alloca i32, align 4
  store i32 %0, i32* %2, align 4
  store i32 0, i32* %3, align 4
  store i32 0, i32* %4, align 4
  store i32 0, i32* %5, align 4
  store i32 0, i32* %3, align 4
  br label %6

6:                                                ; preds = %51, %1
  %7 = load i32, i32* %3, align 4
  %8 = load i32, i32* %2, align 4
  %9 = icmp slt i32 %7, %8
  br i1 %9, label %10, label %54

10:                                               ; preds = %6
  %11 = load i32, i32* %3, align 4
  %12 = sext i32 %11 to i64
  %13 = getelementptr inbounds [26 x i32], [26 x i32]* @max, i64 0, i64 %12
  store i32 1, i32* %13, align 4
  store i32 0, i32* %4, align 4
  br label %14

14:                                               ; preds = %47, %10
  %15 = load i32, i32* %4, align 4
  %16 = load i32, i32* %3, align 4
  %17 = icmp slt i32 %15, %16
  br i1 %17, label %18, label %50

18:                                               ; preds = %14
  %19 = load i32, i32* %3, align 4
  %20 = sext i32 %19 to i64
  %21 = getelementptr inbounds [26 x i32], [26 x i32]* @a, i64 0, i64 %20
  %22 = load i32, i32* %21, align 4
  %23 = load i32, i32* %4, align 4
  %24 = sext i32 %23 to i64
  %25 = getelementptr inbounds [26 x i32], [26 x i32]* @a, i64 0, i64 %24
  %26 = load i32, i32* %25, align 4
  %27 = icmp sle i32 %22, %26
  br i1 %27, label %28, label %46

28:                                               ; preds = %18
  %29 = load i32, i32* %4, align 4
  %30 = sext i32 %29 to i64
  %31 = getelementptr inbounds [26 x i32], [26 x i32]* @max, i64 0, i64 %30
  %32 = load i32, i32* %31, align 4
  %33 = add nsw i32 %32, 1
  store i32 %33, i32* %5, align 4
  %34 = load i32, i32* %5, align 4
  %35 = load i32, i32* %3, align 4
  %36 = sext i32 %35 to i64
  %37 = getelementptr inbounds [26 x i32], [26 x i32]* @max, i64 0, i64 %36
  %38 = load i32, i32* %37, align 4
  %39 = icmp sgt i32 %34, %38
  br i1 %39, label %40, label %45

40:                                               ; preds = %28
  %41 = load i32, i32* %5, align 4
  %42 = load i32, i32* %3, align 4
  %43 = sext i32 %42 to i64
  %44 = getelementptr inbounds [26 x i32], [26 x i32]* @max, i64 0, i64 %43
  store i32 %41, i32* %44, align 4
  br label %45

45:                                               ; preds = %40, %28
  br label %46

46:                                               ; preds = %45, %18
  br label %47

47:                                               ; preds = %46
  %48 = load i32, i32* %4, align 4
  %49 = add nsw i32 %48, 1
  store i32 %49, i32* %4, align 4
  br label %14

50:                                               ; preds = %14
  br label %51

51:                                               ; preds = %50
  %52 = load i32, i32* %3, align 4
  %53 = add nsw i32 %52, 1
  store i32 %53, i32* %3, align 4
  br label %6

54:                                               ; preds = %6
  ret void
}

; Function Attrs: noinline nounwind uwtable
define dso_local i32 @main() #0 {
  %1 = alloca i32, align 4
  store i32 0, i32* %1, align 4
  %2 = call i32 (i8*, ...) @__isoc99_scanf(i8* getelementptr inbounds ([3 x i8], [3 x i8]* @.str, i64 0, i64 0), i32* @main.n)
  store i32 0, i32* @main.i, align 4
  br label %3

3:                                                ; preds = %12, %0
  %4 = load i32, i32* @main.i, align 4
  %5 = load i32, i32* @main.n, align 4
  %6 = icmp slt i32 %4, %5
  br i1 %6, label %7, label %15

7:                                                ; preds = %3
  %8 = load i32, i32* @main.i, align 4
  %9 = sext i32 %8 to i64
  %10 = getelementptr inbounds [26 x i32], [26 x i32]* @a, i64 0, i64 %9
  %11 = call i32 (i8*, ...) @__isoc99_scanf(i8* getelementptr inbounds ([3 x i8], [3 x i8]* @.str, i64 0, i64 0), i32* %10)
  br label %12

12:                                               ; preds = %7
  %13 = load i32, i32* @main.i, align 4
  %14 = add nsw i32 %13, 1
  store i32 %14, i32* @main.i, align 4
  br label %3

15:                                               ; preds = %3
  %16 = load i32, i32* @main.n, align 4
  call void @attack(i32 %16)
  %17 = load i32, i32* getelementptr inbounds ([26 x i32], [26 x i32]* @max, i64 0, i64 0), align 16
  store i32 %17, i32* @main.num, align 4
  store i32 1, i32* @main.i, align 4
  br label %18

18:                                               ; preds = %35, %15
  %19 = load i32, i32* @main.i, align 4
  %20 = load i32, i32* @main.n, align 4
  %21 = icmp slt i32 %19, %20
  br i1 %21, label %22, label %38

22:                                               ; preds = %18
  %23 = load i32, i32* @main.i, align 4
  %24 = sext i32 %23 to i64
  %25 = getelementptr inbounds [26 x i32], [26 x i32]* @max, i64 0, i64 %24
  %26 = load i32, i32* %25, align 4
  %27 = load i32, i32* @main.num, align 4
  %28 = icmp sgt i32 %26, %27
  br i1 %28, label %29, label %34

29:                                               ; preds = %22
  %30 = load i32, i32* @main.i, align 4
  %31 = sext i32 %30 to i64
  %32 = getelementptr inbounds [26 x i32], [26 x i32]* @max, i64 0, i64 %31
  %33 = load i32, i32* %32, align 4
  store i32 %33, i32* @main.num, align 4
  br label %34

34:                                               ; preds = %29, %22
  br label %35

35:                                               ; preds = %34
  %36 = load i32, i32* @main.i, align 4
  %37 = add nsw i32 %36, 1
  store i32 %37, i32* @main.i, align 4
  br label %18

38:                                               ; preds = %18
  %39 = load i32, i32* @main.num, align 4
  %40 = call i32 (i8*, ...) @printf(i8* getelementptr inbounds ([3 x i8], [3 x i8]* @.str, i64 0, i64 0), i32 %39)
  %41 = load i32, i32* %1, align 4
  ret i32 %41
}

declare dso_local i32 @__isoc99_scanf(i8*, ...) #1

declare dso_local i32 @printf(i8*, ...) #1


!llvm.module.flags = !{!0}
!llvm.ident = !{!1}

!0 = !{i32 1, !"wchar_size", i32 4}
!1 = !{!"clang version 10.0.0-4ubuntu1 "}
